target datalayout = "e-m:e-p270:32:32-p271:32:32-p272:64:64-i64:64-i128:128-f80:128-n8:16:32:64-S128"
target triple = "x86_64-pc-linux-gnu"

%class.anon.201 = type { ptr, ptr, ptr }

; Function Attrs: inlinehint mustprogress uwtable
define internal noundef zeroext i1 @"_ZZN3nla9divisions5checkEvENK3$_3clIj8rationaljS3_KjS3_jS3_jS3_S4_S3_EEDaT_RT0_T1_RT2_RT3_RT4_T5_RT6_T7_RT8_RT9_RT10_"(ptr noundef nonnull align 8 dereferenceable(24) %0, i32 noundef %1, ptr noundef nonnull align 8 dereferenceable(32) %2, i32 noundef %3, ptr noundef nonnull align 8 dereferenceable(32) %4, ptr noundef nonnull align 4 dereferenceable(4) %5, ptr noundef nonnull align 8 dereferenceable(32) %6, i32 noundef %7, ptr noundef nonnull align 8 dereferenceable(32) %8, i32 noundef %9, ptr noundef nonnull align 8 dereferenceable(32) %10, ptr noundef nonnull align 4 dereferenceable(4) %11, ptr noundef nonnull align 8 dereferenceable(32) %12) #7 align 2 {
  %14 = alloca i1, align 1
  %15 = alloca ptr, align 8
  %16 = alloca i32, align 4
  %17 = alloca ptr, align 8
  %18 = alloca i32, align 4
  %19 = alloca ptr, align 8
  %20 = alloca ptr, align 8
  %21 = alloca ptr, align 8
  %22 = alloca i32, align 4
  %23 = alloca ptr, align 8
  %24 = alloca i32, align 4
  %25 = alloca ptr, align 8
  %26 = alloca ptr, align 8
  %27 = alloca ptr, align 8
  store ptr %0, ptr %15, align 8, !tbaa !204
  store i32 %1, ptr %16, align 4, !tbaa !8
  store ptr %2, ptr %17, align 8, !tbaa !206
  store i32 %3, ptr %18, align 4, !tbaa !8
  store ptr %4, ptr %19, align 8, !tbaa !206
  store ptr %5, ptr %20, align 8, !tbaa !27
  store ptr %6, ptr %21, align 8, !tbaa !206
  store i32 %7, ptr %22, align 4, !tbaa !8
  store ptr %8, ptr %23, align 8, !tbaa !206
  store i32 %9, ptr %24, align 4, !tbaa !8
  store ptr %10, ptr %25, align 8, !tbaa !206
  store ptr %11, ptr %26, align 8, !tbaa !27
  store ptr %12, ptr %27, align 8, !tbaa !206
  %28 = load ptr, ptr %15, align 8
  %29 = getelementptr inbounds nuw %class.anon.201, ptr %28, i32 0, i32 0
  %30 = load ptr, ptr %29, align 8, !tbaa !209
  %31 = load i32, ptr %16, align 4, !tbaa !8
  %32 = load ptr, ptr %17, align 8, !tbaa !206
  %33 = load i32, ptr %18, align 4, !tbaa !8
  %34 = load ptr, ptr %19, align 8, !tbaa !206
  %35 = load ptr, ptr %20, align 8, !tbaa !27
  %36 = load ptr, ptr %21, align 8, !tbaa !206
  %37 = load i32, ptr %22, align 4, !tbaa !8
  %38 = load ptr, ptr %23, align 8, !tbaa !206
  %39 = load i32, ptr %24, align 4, !tbaa !8
  %40 = load ptr, ptr %25, align 8, !tbaa !206
  %41 = load ptr, ptr %26, align 8, !tbaa !27
  %42 = load ptr, ptr %27, align 8, !tbaa !206
  %43 = call noundef zeroext i1 @"_ZZN3nla9divisions5checkEvENK3$_0clIj8rationaljS3_KjS3_jS3_jS3_S4_S3_EEDaT_RT0_T1_RT2_RT3_RT4_T5_RT6_T7_RT8_RT9_RT10_"(ptr noundef nonnull align 8 dereferenceable(8) %30, i32 noundef %31, ptr noundef nonnull align 8 dereferenceable(32) %32, i32 noundef %33, ptr noundef nonnull align 8 dereferenceable(32) %34, ptr noundef nonnull align 4 dereferenceable(4) %35, ptr noundef nonnull align 8 dereferenceable(32) %36, i32 noundef %37, ptr noundef nonnull align 8 dereferenceable(32) %38, i32 noundef %39, ptr noundef nonnull align 8 dereferenceable(32) %40, ptr noundef nonnull align 4 dereferenceable(4) %41, ptr noundef nonnull align 8 dereferenceable(32) %42)
  br i1 %43, label %44, label %45

44:                                               ; preds = %13
  store i1 true, ptr %14, align 1
  br label %131

45:                                               ; preds = %13
  %46 = getelementptr inbounds nuw %class.anon.201, ptr %28, i32 0, i32 0
  %47 = load ptr, ptr %46, align 8, !tbaa !209
  %48 = load i32, ptr %22, align 4, !tbaa !8
  %49 = load ptr, ptr %23, align 8, !tbaa !206
  %50 = load i32, ptr %24, align 4, !tbaa !8
  %51 = load ptr, ptr %25, align 8, !tbaa !206
  %52 = load ptr, ptr %26, align 8, !tbaa !27
  %53 = load ptr, ptr %27, align 8, !tbaa !206
  %54 = load i32, ptr %16, align 4, !tbaa !8
  %55 = load ptr, ptr %17, align 8, !tbaa !206
  %56 = load i32, ptr %18, align 4, !tbaa !8
  %57 = load ptr, ptr %19, align 8, !tbaa !206
  %58 = load ptr, ptr %20, align 8, !tbaa !27
  %59 = load ptr, ptr %21, align 8, !tbaa !206
  %60 = call noundef zeroext i1 @"_ZZN3nla9divisions5checkEvENK3$_0clIj8rationaljS3_KjS3_jS3_jS3_S4_S3_EEDaT_RT0_T1_RT2_RT3_RT4_T5_RT6_T7_RT8_RT9_RT10_"(ptr noundef nonnull align 8 dereferenceable(8) %47, i32 noundef %48, ptr noundef nonnull align 8 dereferenceable(32) %49, i32 noundef %50, ptr noundef nonnull align 8 dereferenceable(32) %51, ptr noundef nonnull align 4 dereferenceable(4) %52, ptr noundef nonnull align 8 dereferenceable(32) %53, i32 noundef %54, ptr noundef nonnull align 8 dereferenceable(32) %55, i32 noundef %56, ptr noundef nonnull align 8 dereferenceable(32) %57, ptr noundef nonnull align 4 dereferenceable(4) %58, ptr noundef nonnull align 8 dereferenceable(32) %59)
  br i1 %60, label %61, label %62

61:                                               ; preds = %45
  store i1 true, ptr %14, align 1
  br label %131

62:                                               ; preds = %45
  %63 = getelementptr inbounds nuw %class.anon.201, ptr %28, i32 0, i32 1
  %64 = load ptr, ptr %63, align 8, !tbaa !211
  %65 = load i32, ptr %16, align 4, !tbaa !8
  %66 = load ptr, ptr %17, align 8, !tbaa !206
  %67 = load i32, ptr %18, align 4, !tbaa !8
  %68 = load ptr, ptr %19, align 8, !tbaa !206
  %69 = load ptr, ptr %20, align 8, !tbaa !27
  %70 = load ptr, ptr %21, align 8, !tbaa !206
  %71 = load i32, ptr %22, align 4, !tbaa !8
  %72 = load ptr, ptr %23, align 8, !tbaa !206
  %73 = load i32, ptr %24, align 4, !tbaa !8
  %74 = load ptr, ptr %25, align 8, !tbaa !206
  %75 = load ptr, ptr %26, align 8, !tbaa !27
  %76 = load ptr, ptr %27, align 8, !tbaa !206
  %77 = call noundef zeroext i1 @"_ZZN3nla9divisions5checkEvENK3$_1clIj8rationaljS3_KjS3_jS3_jS3_S4_S3_EEDaT_RT0_T1_RT2_RT3_RT4_T5_RT6_T7_RT8_RT9_RT10_"(ptr noundef nonnull align 8 dereferenceable(8) %64, i32 noundef %65, ptr noundef nonnull align 8 dereferenceable(32) %66, i32 noundef %67, ptr noundef nonnull align 8 dereferenceable(32) %68, ptr noundef nonnull align 4 dereferenceable(4) %69, ptr noundef nonnull align 8 dereferenceable(32) %70, i32 noundef %71, ptr noundef nonnull align 8 dereferenceable(32) %72, i32 noundef %73, ptr noundef nonnull align 8 dereferenceable(32) %74, ptr noundef nonnull align 4 dereferenceable(4) %75, ptr noundef nonnull align 8 dereferenceable(32) %76)
  br i1 %77, label %78, label %79

78:                                               ; preds = %62
  store i1 true, ptr %14, align 1
  br label %131

79:                                               ; preds = %62
  %80 = getelementptr inbounds nuw %class.anon.201, ptr %28, i32 0, i32 1
  %81 = load ptr, ptr %80, align 8, !tbaa !211
  %82 = load i32, ptr %22, align 4, !tbaa !8
  %83 = load ptr, ptr %23, align 8, !tbaa !206
  %84 = load i32, ptr %24, align 4, !tbaa !8
  %85 = load ptr, ptr %25, align 8, !tbaa !206
  %86 = load ptr, ptr %26, align 8, !tbaa !27
  %87 = load ptr, ptr %27, align 8, !tbaa !206
  %88 = load i32, ptr %16, align 4, !tbaa !8
  %89 = load ptr, ptr %17, align 8, !tbaa !206
  %90 = load i32, ptr %18, align 4, !tbaa !8
  %91 = load ptr, ptr %19, align 8, !tbaa !206
  %92 = load ptr, ptr %20, align 8, !tbaa !27
  %93 = load ptr, ptr %21, align 8, !tbaa !206
  %94 = call noundef zeroext i1 @"_ZZN3nla9divisions5checkEvENK3$_1clIj8rationaljS3_KjS3_jS3_jS3_S4_S3_EEDaT_RT0_T1_RT2_RT3_RT4_T5_RT6_T7_RT8_RT9_RT10_"(ptr noundef nonnull align 8 dereferenceable(8) %81, i32 noundef %82, ptr noundef nonnull align 8 dereferenceable(32) %83, i32 noundef %84, ptr noundef nonnull align 8 dereferenceable(32) %85, ptr noundef nonnull align 4 dereferenceable(4) %86, ptr noundef nonnull align 8 dereferenceable(32) %87, i32 noundef %88, ptr noundef nonnull align 8 dereferenceable(32) %89, i32 noundef %90, ptr noundef nonnull align 8 dereferenceable(32) %91, ptr noundef nonnull align 4 dereferenceable(4) %92, ptr noundef nonnull align 8 dereferenceable(32) %93)
  br i1 %94, label %95, label %96

95:                                               ; preds = %79
  store i1 true, ptr %14, align 1
  br label %131

96:                                               ; preds = %79
  %97 = getelementptr inbounds nuw %class.anon.201, ptr %28, i32 0, i32 2
  %98 = load ptr, ptr %97, align 8, !tbaa !212
  %99 = load i32, ptr %16, align 4, !tbaa !8
  %100 = load ptr, ptr %17, align 8, !tbaa !206
  %101 = load i32, ptr %18, align 4, !tbaa !8
  %102 = load ptr, ptr %19, align 8, !tbaa !206
  %103 = load ptr, ptr %20, align 8, !tbaa !27
  %104 = load ptr, ptr %21, align 8, !tbaa !206
  %105 = load i32, ptr %22, align 4, !tbaa !8
  %106 = load ptr, ptr %23, align 8, !tbaa !206
  %107 = load i32, ptr %24, align 4, !tbaa !8
  %108 = load ptr, ptr %25, align 8, !tbaa !206
  %109 = load ptr, ptr %26, align 8, !tbaa !27
  %110 = load ptr, ptr %27, align 8, !tbaa !206
  %111 = call noundef zeroext i1 @"_ZZN3nla9divisions5checkEvENK3$_2clIj8rationaljS3_KjS3_jS3_jS3_S4_S3_EEDaT_RT0_T1_RT2_RT3_RT4_T5_RT6_T7_RT8_RT9_RT10_"(ptr noundef nonnull align 8 dereferenceable(8) %98, i32 noundef %99, ptr noundef nonnull align 8 dereferenceable(32) %100, i32 noundef %101, ptr noundef nonnull align 8 dereferenceable(32) %102, ptr noundef nonnull align 4 dereferenceable(4) %103, ptr noundef nonnull align 8 dereferenceable(32) %104, i32 noundef %105, ptr noundef nonnull align 8 dereferenceable(32) %106, i32 noundef %107, ptr noundef nonnull align 8 dereferenceable(32) %108, ptr noundef nonnull align 4 dereferenceable(4) %109, ptr noundef nonnull align 8 dereferenceable(32) %110)
  br i1 %111, label %112, label %113

112:                                              ; preds = %96
  store i1 true, ptr %14, align 1
  br label %131

113:                                              ; preds = %96
  %114 = getelementptr inbounds nuw %class.anon.201, ptr %28, i32 0, i32 2
  %115 = load ptr, ptr %114, align 8, !tbaa !212
  %116 = load i32, ptr %22, align 4, !tbaa !8
  %117 = load ptr, ptr %23, align 8, !tbaa !206
  %118 = load i32, ptr %24, align 4, !tbaa !8
  %119 = load ptr, ptr %25, align 8, !tbaa !206
  %120 = load ptr, ptr %26, align 8, !tbaa !27
  %121 = load ptr, ptr %27, align 8, !tbaa !206
  %122 = load i32, ptr %16, align 4, !tbaa !8
  %123 = load ptr, ptr %17, align 8, !tbaa !206
  %124 = load i32, ptr %18, align 4, !tbaa !8
  %125 = load ptr, ptr %19, align 8, !tbaa !206
  %126 = load ptr, ptr %20, align 8, !tbaa !27
  %127 = load ptr, ptr %21, align 8, !tbaa !206
  %128 = call noundef zeroext i1 @"_ZZN3nla9divisions5checkEvENK3$_2clIj8rationaljS3_KjS3_jS3_jS3_S4_S3_EEDaT_RT0_T1_RT2_RT3_RT4_T5_RT6_T7_RT8_RT9_RT10_"(ptr noundef nonnull align 8 dereferenceable(8) %115, i32 noundef %116, ptr noundef nonnull align 8 dereferenceable(32) %117, i32 noundef %118, ptr noundef nonnull align 8 dereferenceable(32) %119, ptr noundef nonnull align 4 dereferenceable(4) %120, ptr noundef nonnull align 8 dereferenceable(32) %121, i32 noundef %122, ptr noundef nonnull align 8 dereferenceable(32) %123, i32 noundef %124, ptr noundef nonnull align 8 dereferenceable(32) %125, ptr noundef nonnull align 4 dereferenceable(4) %126, ptr noundef nonnull align 8 dereferenceable(32) %127)
  br i1 %128, label %129, label %130

129:                                              ; preds = %113
  store i1 true, ptr %14, align 1
  br label %131

130:                                              ; preds = %113
  store i1 false, ptr %14, align 1
  br label %131

131:                                              ; preds = %130, %129, %112, %95, %78, %61, %44
  %132 = load i1, ptr %14, align 1
  ret i1 %132
}