; Function Attrs: inlinehint mustprogress uwtable
define internal fastcc noundef zeroext i1 @"_ZZN3nla9divisions5checkEvENK3$_3clIj8rationaljS3_KjS3_jS3_jS3_S4_S3_EEDaT_RT0_T1_RT2_RT3_RT4_T5_RT6_T7_RT8_RT9_RT10_"(ptr noundef nonnull readonly align 8 captures(none) dereferenceable(24) %0, i32 noundef %1, ptr noundef nonnull align 8 dereferenceable(32) %2, i32 noundef %3, ptr noundef nonnull align 8 dereferenceable(32) %4, ptr noundef nonnull readonly align 4 captures(none) dereferenceable(4) %5, ptr noundef nonnull align 8 dereferenceable(32) %6, i32 noundef %7, ptr noundef nonnull align 8 dereferenceable(32) %8, i32 noundef %9, ptr noundef nonnull align 8 dereferenceable(32) %10, ptr noundef nonnull readonly align 4 captures(none) dereferenceable(4) %11, ptr noundef nonnull align 8 dereferenceable(32) %12) unnamed_addr #5 align 2 {
  %14 = load ptr, ptr %0, align 8, !tbaa !212
  %15 = tail call fastcc noundef zeroext i1 @"_ZZN3nla9divisions5checkEvENK3$_0clIj8rationaljS3_KjS3_jS3_jS3_S4_S3_EEDaT_RT0_T1_RT2_RT3_RT4_T5_RT6_T7_RT8_RT9_RT10_"(ptr noundef nonnull align 8 dereferenceable(8) %14, i32 noundef %1, ptr noundef nonnull align 8 dereferenceable(32) %2, i32 noundef %3, ptr noundef nonnull align 8 dereferenceable(32) %4, ptr noundef nonnull align 4 dereferenceable(4) %5, ptr noundef nonnull align 8 dereferenceable(32) %6, i32 noundef %7, ptr noundef nonnull align 8 dereferenceable(32) %8, i32 noundef %9, ptr noundef nonnull align 8 dereferenceable(32) %10, ptr noundef nonnull align 4 dereferenceable(4) %11, ptr noundef nonnull align 8 dereferenceable(32) %12)
  br i1 %15, label %33, label %16

16:                                               ; preds = %13
  %17 = load ptr, ptr %0, align 8, !tbaa !212
  %18 = tail call fastcc noundef zeroext i1 @"_ZZN3nla9divisions5checkEvENK3$_0clIj8rationaljS3_KjS3_jS3_jS3_S4_S3_EEDaT_RT0_T1_RT2_RT3_RT4_T5_RT6_T7_RT8_RT9_RT10_"(ptr noundef nonnull align 8 dereferenceable(8) %17, i32 noundef %7, ptr noundef nonnull align 8 dereferenceable(32) %8, i32 noundef %9, ptr noundef nonnull align 8 dereferenceable(32) %10, ptr noundef nonnull align 4 dereferenceable(4) %11, ptr noundef nonnull align 8 dereferenceable(32) %12, i32 noundef %1, ptr noundef nonnull align 8 dereferenceable(32) %2, i32 noundef %3, ptr noundef nonnull align 8 dereferenceable(32) %4, ptr noundef nonnull align 4 dereferenceable(4) %5, ptr noundef nonnull align 8 dereferenceable(32) %6)
  br i1 %18, label %33, label %19

19:                                               ; preds = %16
  %20 = getelementptr inbounds nuw i8, ptr %0, i64 8
  %21 = load ptr, ptr %20, align 8, !tbaa !214
  %22 = tail call fastcc noundef zeroext i1 @"_ZZN3nla9divisions5checkEvENK3$_1clIj8rationaljS3_KjS3_jS3_jS3_S4_S3_EEDaT_RT0_T1_RT2_RT3_RT4_T5_RT6_T7_RT8_RT9_RT10_"(ptr noundef nonnull align 8 dereferenceable(8) %21, i32 noundef %1, ptr noundef nonnull align 8 dereferenceable(32) %2, i32 noundef %3, ptr noundef nonnull align 8 dereferenceable(32) %4, ptr noundef nonnull align 4 dereferenceable(4) %5, ptr noundef nonnull align 8 dereferenceable(32) %6, i32 noundef %7, ptr noundef nonnull align 8 dereferenceable(32) %8, i32 noundef %9, ptr noundef nonnull align 8 dereferenceable(32) %10, ptr noundef nonnull align 4 dereferenceable(4) %11, ptr noundef nonnull align 8 dereferenceable(32) %12)
  br i1 %22, label %33, label %23

23:                                               ; preds = %19
  %24 = load ptr, ptr %20, align 8, !tbaa !214
  %25 = tail call fastcc noundef zeroext i1 @"_ZZN3nla9divisions5checkEvENK3$_1clIj8rationaljS3_KjS3_jS3_jS3_S4_S3_EEDaT_RT0_T1_RT2_RT3_RT4_T5_RT6_T7_RT8_RT9_RT10_"(ptr noundef nonnull align 8 dereferenceable(8) %24, i32 noundef %7, ptr noundef nonnull align 8 dereferenceable(32) %8, i32 noundef %9, ptr noundef nonnull align 8 dereferenceable(32) %10, ptr noundef nonnull align 4 dereferenceable(4) %11, ptr noundef nonnull align 8 dereferenceable(32) %12, i32 noundef %1, ptr noundef nonnull align 8 dereferenceable(32) %2, i32 noundef %3, ptr noundef nonnull align 8 dereferenceable(32) %4, ptr noundef nonnull align 4 dereferenceable(4) %5, ptr noundef nonnull align 8 dereferenceable(32) %6)
  br i1 %25, label %33, label %26

26:                                               ; preds = %23
  %27 = getelementptr inbounds nuw i8, ptr %0, i64 16
  %28 = load ptr, ptr %27, align 8, !tbaa !215
  %29 = tail call fastcc noundef zeroext i1 @"_ZZN3nla9divisions5checkEvENK3$_2clIj8rationaljS3_KjS3_jS3_jS3_S4_S3_EEDaT_RT0_T1_RT2_RT3_RT4_T5_RT6_T7_RT8_RT9_RT10_"(ptr noundef nonnull align 8 dereferenceable(8) %28, i32 noundef %1, ptr noundef nonnull align 8 dereferenceable(32) %2, i32 noundef %3, ptr noundef nonnull align 8 dereferenceable(32) %4, ptr noundef nonnull align 4 dereferenceable(4) %5, ptr noundef nonnull align 8 dereferenceable(32) %6, i32 noundef %7, ptr noundef nonnull align 8 dereferenceable(32) %8, i32 noundef %9, ptr noundef nonnull align 8 dereferenceable(32) %10, ptr noundef nonnull align 4 dereferenceable(4) %11, ptr noundef nonnull align 8 dereferenceable(32) %12)
  br i1 %29, label %33, label %30

30:                                               ; preds = %26
  %31 = load ptr, ptr %27, align 8, !tbaa !215
  %32 = tail call fastcc noundef zeroext i1 @"_ZZN3nla9divisions5checkEvENK3$_2clIj8rationaljS3_KjS3_jS3_jS3_S4_S3_EEDaT_RT0_T1_RT2_RT3_RT4_T5_RT6_T7_RT8_RT9_RT10_"(ptr noundef nonnull align 8 dereferenceable(8) %31, i32 noundef %7, ptr noundef nonnull align 8 dereferenceable(32) %8, i32 noundef %9, ptr noundef nonnull align 8 dereferenceable(32) %10, ptr noundef nonnull align 4 dereferenceable(4) %11, ptr noundef nonnull align 8 dereferenceable(32) %12, i32 noundef %1, ptr noundef nonnull align 8 dereferenceable(32) %2, i32 noundef %3, ptr noundef nonnull align 8 dereferenceable(32) %4, ptr noundef nonnull align 4 dereferenceable(4) %5, ptr noundef nonnull align 8 dereferenceable(32) %6)
  br label %33

33:                                               ; preds = %30, %26, %23, %19, %16, %13
  %.0 = phi i1 [ true, %13 ], [ true, %16 ], [ true, %19 ], [ true, %23 ], [ true, %26 ], [ %32, %30 ]
  ret i1 %.0
}